target datalayout = "e-m:e-p270:32:32-p271:32:32-p272:64:64-i64:64-i128:128-f80:128-n8:16:32:64-S128"
target triple = "x86_64-pc-linux-gnu"

%struct.archive_entry = type { ptr, ptr, i32, %struct.aest, i32, %struct.archive_mstring, i64, i64, %struct.archive_mstring, %struct.archive_mstring, %struct.archive_mstring, %struct.archive_mstring, %struct.archive_mstring, i8, ptr, i64, %struct.ae_digest, %struct.archive_acl, ptr, ptr, ptr, ptr, ptr, [12 x i8], i32 }
%struct.aest = type { i64, i32, i64, i32, i64, i32, i64, i32, i64, i64, i32, i64, i64, i32, i64, i64, i64, i32, i64, i64, i64 }
%struct.archive_mstring = type { %struct.archive_string, %struct.archive_string, %struct.archive_wstring, %struct.archive_string, i32 }
%struct.archive_wstring = type { ptr, i64, i64 }
%struct.archive_string = type { ptr, i64, i64 }
%struct.ae_digest = type { [16 x i8], [20 x i8], [20 x i8], [32 x i8], [48 x i8], [64 x i8] }
%struct.archive_acl = type { i32, ptr, ptr, i32, ptr, ptr, i32 }

; Function Attrs: nounwind uwtable
define dso_local void @archive_entry_copy_hardlink(ptr noundef %0, ptr noundef %1) #0 {
  %3 = alloca ptr, align 8
  %4 = alloca ptr, align 8
  store ptr %0, ptr %3, align 8, !tbaa !4
  store ptr %1, ptr %4, align 8, !tbaa !67
  %5 = load ptr, ptr %4, align 8, !tbaa !67
  %6 = icmp eq ptr %5, null
  br i1 %6, label %7, label %14

7:                                                ; preds = %2
  %8 = load ptr, ptr %3, align 8, !tbaa !4
  %9 = getelementptr inbounds nuw %struct.archive_entry, ptr %8, i32 0, i32 4
  %10 = load i32, ptr %9, align 8, !tbaa !35
  %11 = and i32 %10, 2
  %12 = icmp ne i32 %11, 0
  br i1 %12, label %13, label %14

13:                                               ; preds = %7
  br label %31

14:                                               ; preds = %7, %2
  %15 = load ptr, ptr %3, align 8, !tbaa !4
  %16 = getelementptr inbounds nuw %struct.archive_entry, ptr %15, i32 0, i32 9
  %17 = load ptr, ptr %4, align 8, !tbaa !67
  %18 = call i32 @archive_mstring_copy_mbs(ptr noundef %16, ptr noundef %17)
  %19 = load ptr, ptr %4, align 8, !tbaa !67
  %20 = icmp ne ptr %19, null
  br i1 %20, label %21, label %26

21:                                               ; preds = %14
  %22 = load ptr, ptr %3, align 8, !tbaa !4
  %23 = getelementptr inbounds nuw %struct.archive_entry, ptr %22, i32 0, i32 4
  %24 = load i32, ptr %23, align 8, !tbaa !35
  %25 = or i32 %24, 1
  store i32 %25, ptr %23, align 8, !tbaa !35
  br label %31

26:                                               ; preds = %14
  %27 = load ptr, ptr %3, align 8, !tbaa !4
  %28 = getelementptr inbounds nuw %struct.archive_entry, ptr %27, i32 0, i32 4
  %29 = load i32, ptr %28, align 8, !tbaa !35
  %30 = and i32 %29, -2
  store i32 %30, ptr %28, align 8, !tbaa !35
  br label %31

31:                                               ; preds = %13, %26, %21
  ret void
}