; Function Attrs: nounwind uwtable
define dso_local void @archive_entry_copy_hardlink(ptr noundef %0, ptr noundef %1) local_unnamed_addr #0 {
  %3 = icmp eq ptr %1, null
  br i1 %3, label %4, label %8

4:                                                ; preds = %2
  %5 = getelementptr inbounds nuw i8, ptr %0, i64 192
  %6 = load i32, ptr %5, align 8, !tbaa !31
  %7 = and i32 %6, 2
  %.not = icmp eq i32 %7, 0
  br i1 %.not, label %14, label %19

8:                                                ; preds = %2
  %9 = getelementptr inbounds nuw i8, ptr %0, i64 424
  %10 = tail call i32 @archive_mstring_copy_mbs(ptr noundef nonnull %9, ptr noundef nonnull %1) #21
  %11 = getelementptr inbounds nuw i8, ptr %0, i64 192
  %12 = load i32, ptr %11, align 8, !tbaa !31
  %13 = or i32 %12, 1
  store i32 %13, ptr %11, align 8, !tbaa !31
  br label %19

14:                                               ; preds = %4
  %15 = getelementptr inbounds nuw i8, ptr %0, i64 424
  %16 = tail call i32 @archive_mstring_copy_mbs(ptr noundef nonnull %15, ptr noundef null) #21
  %17 = load i32, ptr %5, align 8, !tbaa !31
  %18 = and i32 %17, -2
  store i32 %18, ptr %5, align 8, !tbaa !31
  br label %19

19:                                               ; preds = %4, %14, %8
  ret void
}